target datalayout = "e-m:e-p270:32:32-p271:32:32-p272:64:64-i64:64-i128:128-f80:128-n8:16:32:64-S128"
target triple = "x86_64-pc-linux-gnu"

%struct.JsonUniqueHashEntry = type { ptr, i32, i32 }

; Function Attrs: nounwind uwtable
define internal i32 @json_unique_hash_match(ptr noundef %0, ptr noundef %1, i64 noundef %2) #0 {
  %4 = alloca i32, align 4
  %5 = alloca ptr, align 8
  %6 = alloca ptr, align 8
  %7 = alloca i64, align 8
  %8 = alloca ptr, align 8
  %9 = alloca ptr, align 8
  %10 = alloca i32, align 4
  store ptr %0, ptr %5, align 8
  store ptr %1, ptr %6, align 8
  store i64 %2, ptr %7, align 8
  call void @llvm.lifetime.start.p0(i64 8, ptr %8) #14
  %11 = load ptr, ptr %5, align 8
  store ptr %11, ptr %8, align 8
  call void @llvm.lifetime.start.p0(i64 8, ptr %9) #14
  %12 = load ptr, ptr %6, align 8
  store ptr %12, ptr %9, align 8
  %13 = load ptr, ptr %8, align 8
  %14 = getelementptr inbounds nuw %struct.JsonUniqueHashEntry, ptr %13, i32 0, i32 2
  %15 = load i32, ptr %14, align 4
  %16 = load ptr, ptr %9, align 8
  %17 = getelementptr inbounds nuw %struct.JsonUniqueHashEntry, ptr %16, i32 0, i32 2
  %18 = load i32, ptr %17, align 4
  %19 = icmp ne i32 %15, %18
  br i1 %19, label %20, label %29

20:                                               ; preds = %3
  %21 = load ptr, ptr %8, align 8
  %22 = getelementptr inbounds nuw %struct.JsonUniqueHashEntry, ptr %21, i32 0, i32 2
  %23 = load i32, ptr %22, align 4
  %24 = load ptr, ptr %9, align 8
  %25 = getelementptr inbounds nuw %struct.JsonUniqueHashEntry, ptr %24, i32 0, i32 2
  %26 = load i32, ptr %25, align 4
  %27 = icmp sgt i32 %23, %26
  %28 = select i1 %27, i32 1, i32 -1
  store i32 %28, ptr %4, align 4
  store i32 1, ptr %10, align 4
  br label %58

29:                                               ; preds = %3
  %30 = load ptr, ptr %8, align 8
  %31 = getelementptr inbounds nuw %struct.JsonUniqueHashEntry, ptr %30, i32 0, i32 1
  %32 = load i32, ptr %31, align 8
  %33 = load ptr, ptr %9, align 8
  %34 = getelementptr inbounds nuw %struct.JsonUniqueHashEntry, ptr %33, i32 0, i32 1
  %35 = load i32, ptr %34, align 8
  %36 = icmp ne i32 %32, %35
  br i1 %36, label %37, label %46

37:                                               ; preds = %29
  %38 = load ptr, ptr %8, align 8
  %39 = getelementptr inbounds nuw %struct.JsonUniqueHashEntry, ptr %38, i32 0, i32 1
  %40 = load i32, ptr %39, align 8
  %41 = load ptr, ptr %9, align 8
  %42 = getelementptr inbounds nuw %struct.JsonUniqueHashEntry, ptr %41, i32 0, i32 1
  %43 = load i32, ptr %42, align 8
  %44 = icmp sgt i32 %40, %43
  %45 = select i1 %44, i32 1, i32 -1
  store i32 %45, ptr %4, align 4
  store i32 1, ptr %10, align 4
  br label %58

46:                                               ; preds = %29
  %47 = load ptr, ptr %8, align 8
  %48 = getelementptr inbounds nuw %struct.JsonUniqueHashEntry, ptr %47, i32 0, i32 0
  %49 = load ptr, ptr %48, align 8
  %50 = load ptr, ptr %9, align 8
  %51 = getelementptr inbounds nuw %struct.JsonUniqueHashEntry, ptr %50, i32 0, i32 0
  %52 = load ptr, ptr %51, align 8
  %53 = load ptr, ptr %8, align 8
  %54 = getelementptr inbounds nuw %struct.JsonUniqueHashEntry, ptr %53, i32 0, i32 1
  %55 = load i32, ptr %54, align 8
  %56 = sext i32 %55 to i64
  %57 = call i32 @strncmp(ptr noundef %49, ptr noundef %52, i64 noundef %56) #16
  store i32 %57, ptr %4, align 4
  store i32 1, ptr %10, align 4
  br label %58

58:                                               ; preds = %46, %37, %20
  call void @llvm.lifetime.end.p0(i64 8, ptr %9) #14
  call void @llvm.lifetime.end.p0(i64 8, ptr %8) #14
  %59 = load i32, ptr %4, align 4
  ret i32 %59
}