; Function Attrs: mustprogress nofree nounwind willreturn memory(read, inaccessiblemem: none) uwtable
define internal i32 @json_unique_hash_match(ptr noundef readonly captures(none) %0, ptr noundef readonly captures(none) %1, i64 %2) #8 {
  %4 = getelementptr inbounds nuw i8, ptr %0, i64 12
  %5 = load i32, ptr %4, align 4
  %6 = getelementptr inbounds nuw i8, ptr %1, i64 12
  %7 = load i32, ptr %6, align 4
  %.not = icmp eq i32 %5, %7
  br i1 %.not, label %11, label %8

8:                                                ; preds = %3
  %9 = icmp sgt i32 %5, %7
  %10 = select i1 %9, i32 1, i32 -1
  br label %24

11:                                               ; preds = %3
  %12 = getelementptr inbounds nuw i8, ptr %0, i64 8
  %13 = load i32, ptr %12, align 8
  %14 = getelementptr inbounds nuw i8, ptr %1, i64 8
  %15 = load i32, ptr %14, align 8
  %.not17 = icmp eq i32 %13, %15
  br i1 %.not17, label %19, label %16

16:                                               ; preds = %11
  %17 = icmp sgt i32 %13, %15
  %18 = select i1 %17, i32 1, i32 -1
  br label %24

19:                                               ; preds = %11
  %20 = load ptr, ptr %0, align 8
  %21 = load ptr, ptr %1, align 8
  %22 = sext i32 %13 to i64
  %23 = tail call i32 @strncmp(ptr noundef %20, ptr noundef %21, i64 noundef %22) #12
  br label %24

24:                                               ; preds = %19, %16, %8
  %.0 = phi i32 [ %10, %8 ], [ %18, %16 ], [ %23, %19 ]
  ret i32 %.0
}